; Function Attrs: mustprogress uwtable
define hidden void @_ZNK11aig_manager7displayERSoRK7aig_ref(ptr noundef nonnull readonly align 8 captures(none) dereferenceable(8) %0, ptr noundef nonnull align 8 dereferenceable(8) %1, ptr noundef nonnull readonly align 8 captures(none) dereferenceable(16) %2) local_unnamed_addr #6 align 2 {
  %4 = alloca %class.aig_lit, align 8
  %5 = load ptr, ptr %0, align 8, !tbaa !16
  call void @llvm.lifetime.start.p0(i64 8, ptr nonnull %4) #27
  %6 = getelementptr inbounds nuw i8, ptr %2, i64 8
  %7 = load ptr, ptr %6, align 8, !tbaa !12
  store ptr %7, ptr %4, align 8, !tbaa !9
  call void @_ZNK11aig_manager3imp7displayERSoRK7aig_lit(ptr noundef nonnull align 8 dereferenceable(680) %5, ptr noundef nonnull align 8 dereferenceable(8) %1, ptr noundef nonnull align 8 dereferenceable(8) %4)
  call void @llvm.lifetime.end.p0(i64 8, ptr nonnull %4) #27
  ret void
}